target datalayout = "e-m:e-p270:32:32-p271:32:32-p272:64:64-i64:64-i128:128-f80:128-n8:16:32:64-S128"
target triple = "x86_64-pc-linux-gnu"

%struct.bignum_st = type { ptr, i32, i32, i32, i32 }

; Function Attrs: nounwind uwtable
define i32 @BN_rshift1(ptr noundef %0, ptr noundef %1) #0 {
  %3 = alloca i32, align 4
  %4 = alloca ptr, align 8
  %5 = alloca ptr, align 8
  %6 = alloca ptr, align 8
  %7 = alloca ptr, align 8
  %8 = alloca i64, align 8
  %9 = alloca i64, align 8
  %10 = alloca i32, align 4
  %11 = alloca i32, align 4
  store ptr %0, ptr %4, align 8, !tbaa !3
  store ptr %1, ptr %5, align 8, !tbaa !3
  call void @llvm.lifetime.start.p0(i64 8, ptr %6) #4
  call void @llvm.lifetime.start.p0(i64 8, ptr %7) #4
  call void @llvm.lifetime.start.p0(i64 8, ptr %8) #4
  call void @llvm.lifetime.start.p0(i64 8, ptr %9) #4
  call void @llvm.lifetime.start.p0(i64 4, ptr %10) #4
  %12 = load ptr, ptr %5, align 8, !tbaa !3
  %13 = call i32 @BN_is_zero(ptr noundef %12)
  %14 = icmp ne i32 %13, 0
  br i1 %14, label %15, label %17

15:                                               ; preds = %2
  %16 = load ptr, ptr %4, align 8, !tbaa !3
  call void @BN_zero_ex(ptr noundef %16)
  store i32 1, ptr %3, align 4
  store i32 1, ptr %11, align 4
  br label %97

17:                                               ; preds = %2
  %18 = load ptr, ptr %5, align 8, !tbaa !3
  %19 = getelementptr inbounds nuw %struct.bignum_st, ptr %18, i32 0, i32 1
  %20 = load i32, ptr %19, align 8, !tbaa !12
  store i32 %20, ptr %10, align 4, !tbaa !17
  %21 = load ptr, ptr %5, align 8, !tbaa !3
  %22 = getelementptr inbounds nuw %struct.bignum_st, ptr %21, i32 0, i32 0
  %23 = load ptr, ptr %22, align 8, !tbaa !13
  store ptr %23, ptr %6, align 8, !tbaa !14
  %24 = load ptr, ptr %5, align 8, !tbaa !3
  %25 = load ptr, ptr %4, align 8, !tbaa !3
  %26 = icmp ne ptr %24, %25
  br i1 %26, label %27, label %39

27:                                               ; preds = %17
  %28 = load ptr, ptr %4, align 8, !tbaa !3
  %29 = load i32, ptr %10, align 4, !tbaa !17
  %30 = call ptr @bn_wexpand(ptr noundef %28, i32 noundef %29)
  %31 = icmp eq ptr %30, null
  br i1 %31, label %32, label %33

32:                                               ; preds = %27
  store i32 0, ptr %3, align 4
  store i32 1, ptr %11, align 4
  br label %97

33:                                               ; preds = %27
  %34 = load ptr, ptr %5, align 8, !tbaa !3
  %35 = getelementptr inbounds nuw %struct.bignum_st, ptr %34, i32 0, i32 3
  %36 = load i32, ptr %35, align 8, !tbaa !8
  %37 = load ptr, ptr %4, align 8, !tbaa !3
  %38 = getelementptr inbounds nuw %struct.bignum_st, ptr %37, i32 0, i32 3
  store i32 %36, ptr %38, align 8, !tbaa !8
  br label %39

39:                                               ; preds = %33, %17
  %40 = load ptr, ptr %4, align 8, !tbaa !3
  %41 = getelementptr inbounds nuw %struct.bignum_st, ptr %40, i32 0, i32 0
  %42 = load ptr, ptr %41, align 8, !tbaa !13
  store ptr %42, ptr %7, align 8, !tbaa !14
  %43 = load i32, ptr %10, align 4, !tbaa !17
  %44 = load ptr, ptr %4, align 8, !tbaa !3
  %45 = getelementptr inbounds nuw %struct.bignum_st, ptr %44, i32 0, i32 1
  store i32 %43, ptr %45, align 8, !tbaa !12
  %46 = load ptr, ptr %6, align 8, !tbaa !14
  %47 = load i32, ptr %10, align 4, !tbaa !17
  %48 = add nsw i32 %47, -1
  store i32 %48, ptr %10, align 4, !tbaa !17
  %49 = sext i32 %48 to i64
  %50 = getelementptr inbounds i64, ptr %46, i64 %49
  %51 = load i64, ptr %50, align 8, !tbaa !15
  store i64 %51, ptr %8, align 8, !tbaa !15
  %52 = load i64, ptr %8, align 8, !tbaa !15
  %53 = lshr i64 %52, 1
  %54 = load ptr, ptr %7, align 8, !tbaa !14
  %55 = load i32, ptr %10, align 4, !tbaa !17
  %56 = sext i32 %55 to i64
  %57 = getelementptr inbounds i64, ptr %54, i64 %56
  store i64 %53, ptr %57, align 8, !tbaa !15
  %58 = load i64, ptr %8, align 8, !tbaa !15
  %59 = shl i64 %58, 63
  store i64 %59, ptr %9, align 8, !tbaa !15
  %60 = load i64, ptr %8, align 8, !tbaa !15
  %61 = icmp eq i64 %60, 1
  %62 = zext i1 %61 to i32
  %63 = load ptr, ptr %4, align 8, !tbaa !3
  %64 = getelementptr inbounds nuw %struct.bignum_st, ptr %63, i32 0, i32 1
  %65 = load i32, ptr %64, align 8, !tbaa !12
  %66 = sub nsw i32 %65, %62
  store i32 %66, ptr %64, align 8, !tbaa !12
  br label %67

67:                                               ; preds = %70, %39
  %68 = load i32, ptr %10, align 4, !tbaa !17
  %69 = icmp sgt i32 %68, 0
  br i1 %69, label %70, label %88

70:                                               ; preds = %67
  %71 = load ptr, ptr %6, align 8, !tbaa !14
  %72 = load i32, ptr %10, align 4, !tbaa !17
  %73 = add nsw i32 %72, -1
  store i32 %73, ptr %10, align 4, !tbaa !17
  %74 = sext i32 %73 to i64
  %75 = getelementptr inbounds i64, ptr %71, i64 %74
  %76 = load i64, ptr %75, align 8, !tbaa !15
  store i64 %76, ptr %8, align 8, !tbaa !15
  %77 = load i64, ptr %8, align 8, !tbaa !15
  %78 = lshr i64 %77, 1
  %79 = and i64 %78, -1
  %80 = load i64, ptr %9, align 8, !tbaa !15
  %81 = or i64 %79, %80
  %82 = load ptr, ptr %7, align 8, !tbaa !14
  %83 = load i32, ptr %10, align 4, !tbaa !17
  %84 = sext i32 %83 to i64
  %85 = getelementptr inbounds i64, ptr %82, i64 %84
  store i64 %81, ptr %85, align 8, !tbaa !15
  %86 = load i64, ptr %8, align 8, !tbaa !15
  %87 = shl i64 %86, 63
  store i64 %87, ptr %9, align 8, !tbaa !15
  br label %67, !llvm.loop !20

88:                                               ; preds = %67
  %89 = load ptr, ptr %4, align 8, !tbaa !3
  %90 = getelementptr inbounds nuw %struct.bignum_st, ptr %89, i32 0, i32 1
  %91 = load i32, ptr %90, align 8, !tbaa !12
  %92 = icmp ne i32 %91, 0
  br i1 %92, label %96, label %93

93:                                               ; preds = %88
  %94 = load ptr, ptr %4, align 8, !tbaa !3
  %95 = getelementptr inbounds nuw %struct.bignum_st, ptr %94, i32 0, i32 3
  store i32 0, ptr %95, align 8, !tbaa !8
  br label %96

96:                                               ; preds = %93, %88
  store i32 1, ptr %3, align 4
  store i32 1, ptr %11, align 4
  br label %97

97:                                               ; preds = %96, %32, %15
  call void @llvm.lifetime.end.p0(i64 4, ptr %10) #4
  call void @llvm.lifetime.end.p0(i64 8, ptr %9) #4
  call void @llvm.lifetime.end.p0(i64 8, ptr %8) #4
  call void @llvm.lifetime.end.p0(i64 8, ptr %7) #4
  call void @llvm.lifetime.end.p0(i64 8, ptr %6) #4
  %98 = load i32, ptr %3, align 4
  ret i32 %98
}