; Function Attrs: nounwind uwtable
define range(i32 0, 2) i32 @BN_rshift1(ptr noundef %0, ptr noundef %1) local_unnamed_addr #0 {
  %3 = tail call i32 @BN_is_zero(ptr noundef %1) #4
  %.not = icmp eq i32 %3, 0
  br i1 %.not, label %5, label %4

4:                                                ; preds = %2
  tail call void @BN_zero_ex(ptr noundef %0) #4
  br label %36

5:                                                ; preds = %2
  %6 = getelementptr inbounds nuw i8, ptr %1, i64 8
  %7 = load i32, ptr %6, align 8, !tbaa !10
  %8 = load ptr, ptr %1, align 8, !tbaa !11
  %.not35 = icmp eq ptr %1, %0
  br i1 %.not35, label %16, label %9

9:                                                ; preds = %5
  %10 = tail call ptr @bn_wexpand(ptr noundef %0, i32 noundef %7) #4
  %11 = icmp eq ptr %10, null
  br i1 %11, label %36, label %12

12:                                               ; preds = %9
  %13 = getelementptr inbounds nuw i8, ptr %1, i64 16
  %14 = load i32, ptr %13, align 8, !tbaa !3
  %15 = getelementptr inbounds nuw i8, ptr %0, i64 16
  store i32 %14, ptr %15, align 8, !tbaa !3
  br label %16

16:                                               ; preds = %12, %5
  %17 = load ptr, ptr %0, align 8, !tbaa !11
  %18 = getelementptr inbounds nuw i8, ptr %0, i64 8
  %19 = add nsw i32 %7, -1
  %20 = sext i32 %19 to i64
  %21 = getelementptr inbounds i64, ptr %8, i64 %20
  %22 = load i64, ptr %21, align 8, !tbaa !12
  %23 = lshr i64 %22, 1
  %24 = getelementptr inbounds i64, ptr %17, i64 %20
  store i64 %23, ptr %24, align 8, !tbaa !12
  %25 = icmp eq i64 %22, 1
  %.neg = sext i1 %25 to i32
  %26 = add i32 %7, %.neg
  store i32 %26, ptr %18, align 8, !tbaa !10
  %27 = icmp sgt i32 %7, 1
  br i1 %27, label %.lr.ph.preheader, label %._crit_edge

.lr.ph.preheader:                                 ; preds = %16
  %28 = zext nneg i32 %19 to i64
  br label %.lr.ph

.lr.ph:                                           ; preds = %.lr.ph.preheader, %.lr.ph
  %indvars.iv = phi i64 [ %28, %.lr.ph.preheader ], [ %indvars.iv.next, %.lr.ph ]
  %.031.in37 = phi i64 [ %22, %.lr.ph.preheader ], [ %30, %.lr.ph ]
  %indvars.iv.next = add nsw i64 %indvars.iv, -1
  %29 = getelementptr inbounds nuw i64, ptr %8, i64 %indvars.iv.next
  %30 = load i64, ptr %29, align 8, !tbaa !12
  %31 = tail call i64 @llvm.fshl.i64(i64 %.031.in37, i64 %30, i64 63)
  %32 = getelementptr inbounds nuw i64, ptr %17, i64 %indvars.iv.next
  store i64 %31, ptr %32, align 8, !tbaa !12
  %33 = icmp samesign ugt i64 %indvars.iv, 1
  br i1 %33, label %.lr.ph, label %._crit_edge, !llvm.loop !16

._crit_edge:                                      ; preds = %.lr.ph, %16
  %.not36 = icmp eq i32 %26, 0
  br i1 %.not36, label %34, label %36

34:                                               ; preds = %._crit_edge
  %35 = getelementptr inbounds nuw i8, ptr %0, i64 16
  store i32 0, ptr %35, align 8, !tbaa !3
  br label %36

36:                                               ; preds = %._crit_edge, %34, %9, %4
  %.032 = phi i32 [ 1, %4 ], [ 0, %9 ], [ 1, %34 ], [ 1, %._crit_edge ]
  ret i32 %.032
}